; Function Attrs: mustprogress uwtable
define void @_ZN12ByteViewText9copyBytesEb(ptr noundef nonnull align 8 dereferenceable(328) %0, i1 noundef zeroext %1) local_unnamed_addr #0 align 2 personality ptr @__gxx_personality_v0 {
  %3 = alloca %class.QVariant, align 8
  %4 = alloca %class.DataPrinter, align 8
  %5 = tail call noundef ptr @_ZNK7QObject6senderEv(ptr noundef nonnull align 8 dereferenceable(16) %0)
  %6 = tail call noundef ptr @_ZNK11QMetaObject4castEPK7QObject(ptr noundef nonnull align 8 dereferenceable(56) @_ZN7QAction16staticMetaObjectE, ptr noundef %5)
  %.not = icmp eq ptr %6, null
  br i1 %.not, label %18, label %7

7:                                                ; preds = %2
  call void @_ZNK7QAction4dataEv(ptr dead_on_unwind nonnull writable sret(%class.QVariant) align 8 %3, ptr noundef nonnull align 8 dereferenceable(16) %6)
  %8 = invoke noundef i32 @_ZNK8QVariant5toIntEPb(ptr noundef nonnull align 8 dereferenceable(32) %3, ptr noundef null)
          to label %9 unwind label %14

9:                                                ; preds = %7
  call void @_ZN8QVariantD1Ev(ptr noundef nonnull align 8 dereferenceable(32) %3) #22
  %10 = icmp slt i32 %8, 8
  br i1 %10, label %11, label %18

11:                                               ; preds = %9
  call void @_ZN11DataPrinterC1EP7QObject(ptr noundef nonnull align 8 dereferenceable(20) %4, ptr noundef null)
  %12 = getelementptr inbounds i8, ptr %0, i64 40
  invoke void @_ZN11DataPrinter11toClipboardENS_8DumpTypeEP14IDataPrintable(ptr noundef nonnull align 8 dereferenceable(20) %4, i32 noundef %8, ptr noundef nonnull %12)
          to label %13 unwind label %16

13:                                               ; preds = %11
  call void @_ZN7QObjectD2Ev(ptr noundef nonnull align 8 dereferenceable(16) %4) #22
  br label %18

14:                                               ; preds = %7
  %15 = landingpad { ptr, i32 }
          cleanup
  call void @_ZN8QVariantD1Ev(ptr noundef nonnull align 8 dereferenceable(32) %3) #22
  br label %19

16:                                               ; preds = %11
  %17 = landingpad { ptr, i32 }
          cleanup
  call void @_ZN7QObjectD2Ev(ptr noundef nonnull align 8 dereferenceable(16) %4) #22
  br label %19

18:                                               ; preds = %2, %13, %9
  ret void

19:                                               ; preds = %16, %14
  %.pn = phi { ptr, i32 } [ %17, %16 ], [ %15, %14 ]
  resume { ptr, i32 } %.pn
}